target datalayout = "e-m:e-p270:32:32-p271:32:32-p272:64:64-i64:64-i128:128-f80:128-n8:16:32:64-S128"
target triple = "x86_64-pc-linux-gnu"

%struct.Indeo3DecodeContext = type { ptr, %struct.HpelDSPContext, %struct.GetBitContext, i32, i32, ptr, ptr, ptr, i32, i16, i16, i32, i32, i16, i8, i8, ptr, ptr, ptr, i32, i32, i32, ptr, [3 x %struct.Plane] }
%struct.HpelDSPContext = type { [4 x [4 x ptr]], [4 x [4 x ptr]], [4 x [4 x ptr]], [4 x ptr] }
%struct.GetBitContext = type { ptr, ptr, i32, i32, i32 }
%struct.Plane = type { [2 x ptr], [2 x ptr], i32, i32, i64 }

@.str.2 = private unnamed_addr constant [38 x i8] c"Invalid picture dimensions: %d x %d!\0A\00", align 1

; Function Attrs: cold nounwind optsize uwtable
define internal i32 @allocate_frame_buffers(ptr noundef %0, ptr noundef %1, i32 noundef %2, i32 noundef %3) #0 {
  %5 = alloca i32, align 4
  %6 = alloca ptr, align 8
  %7 = alloca ptr, align 8
  %8 = alloca i32, align 4
  %9 = alloca i32, align 4
  %10 = alloca i32, align 4
  %11 = alloca i32, align 4
  %12 = alloca i32, align 4
  %13 = alloca i32, align 4
  %14 = alloca i32, align 4
  %15 = alloca i64, align 8
  %16 = alloca i64, align 8
  %17 = alloca i32, align 4
  store ptr %0, ptr %6, align 8, !tbaa !29
  store ptr %1, ptr %7, align 8, !tbaa !4
  store i32 %2, ptr %8, align 4, !tbaa !49
  store i32 %3, ptr %9, align 4, !tbaa !49
  call void @llvm.lifetime.start.p0(i64 4, ptr %10) #10
  call void @llvm.lifetime.start.p0(i64 4, ptr %11) #10
  call void @llvm.lifetime.start.p0(i64 4, ptr %12) #10
  call void @llvm.lifetime.start.p0(i64 4, ptr %13) #10
  call void @llvm.lifetime.start.p0(i64 4, ptr %14) #10
  call void @llvm.lifetime.start.p0(i64 8, ptr %15) #10
  call void @llvm.lifetime.start.p0(i64 8, ptr %16) #10
  %18 = load i32, ptr %8, align 4, !tbaa !49
  %19 = add nsw i32 %18, 2
  %20 = sub nsw i32 %19, 1
  %21 = and i32 %20, -2
  store i32 %21, ptr %8, align 4, !tbaa !49
  %22 = load i32, ptr %9, align 4, !tbaa !49
  %23 = add nsw i32 %22, 2
  %24 = sub nsw i32 %23, 1
  %25 = and i32 %24, -2
  store i32 %25, ptr %9, align 4, !tbaa !49
  %26 = load i32, ptr %8, align 4, !tbaa !49
  %27 = icmp slt i32 %26, 16
  br i1 %27, label %45, label %28

28:                                               ; preds = %4
  %29 = load i32, ptr %8, align 4, !tbaa !49
  %30 = icmp sgt i32 %29, 640
  br i1 %30, label %45, label %31

31:                                               ; preds = %28
  %32 = load i32, ptr %9, align 4, !tbaa !49
  %33 = icmp slt i32 %32, 16
  br i1 %33, label %45, label %34

34:                                               ; preds = %31
  %35 = load i32, ptr %9, align 4, !tbaa !49
  %36 = icmp sgt i32 %35, 480
  br i1 %36, label %45, label %37

37:                                               ; preds = %34
  %38 = load i32, ptr %8, align 4, !tbaa !49
  %39 = and i32 %38, 1
  %40 = icmp ne i32 %39, 0
  br i1 %40, label %45, label %41

41:                                               ; preds = %37
  %42 = load i32, ptr %9, align 4, !tbaa !49
  %43 = and i32 %42, 1
  %44 = icmp ne i32 %43, 0
  br i1 %44, label %45, label %49

45:                                               ; preds = %41, %37, %34, %31, %28, %4
  %46 = load ptr, ptr %7, align 8, !tbaa !4
  %47 = load i32, ptr %8, align 4, !tbaa !49
  %48 = load i32, ptr %9, align 4, !tbaa !49
  call void (ptr, i32, ptr, ...) @av_log(ptr noundef %46, i32 noundef 16, ptr noundef @.str.2, i32 noundef %47, i32 noundef %48)
  store i32 -1094995529, ptr %5, align 4
  store i32 1, ptr %17, align 4
  br label %319

49:                                               ; preds = %41
  %50 = load i32, ptr %8, align 4, !tbaa !49
  %51 = trunc i32 %50 to i16
  %52 = load ptr, ptr %6, align 8, !tbaa !29
  %53 = getelementptr inbounds nuw %struct.Indeo3DecodeContext, ptr %52, i32 0, i32 9
  store i16 %51, ptr %53, align 4, !tbaa !63
  %54 = load i32, ptr %9, align 4, !tbaa !49
  %55 = trunc i32 %54 to i16
  %56 = load ptr, ptr %6, align 8, !tbaa !29
  %57 = getelementptr inbounds nuw %struct.Indeo3DecodeContext, ptr %56, i32 0, i32 10
  store i16 %55, ptr %57, align 2, !tbaa !64
  %58 = load i32, ptr %8, align 4, !tbaa !49
  %59 = ashr i32 %58, 2
  %60 = add nsw i32 %59, 4
  %61 = sub nsw i32 %60, 1
  %62 = and i32 %61, -4
  store i32 %62, ptr %11, align 4, !tbaa !49
  %63 = load i32, ptr %9, align 4, !tbaa !49
  %64 = ashr i32 %63, 2
  %65 = add nsw i32 %64, 4
  %66 = sub nsw i32 %65, 1
  %67 = and i32 %66, -4
  store i32 %67, ptr %12, align 4, !tbaa !49
  %68 = load i32, ptr %8, align 4, !tbaa !49
  %69 = add nsw i32 %68, 16
  %70 = sub nsw i32 %69, 1
  %71 = and i32 %70, -16
  %72 = sext i32 %71 to i64
  store i64 %72, ptr %15, align 8, !tbaa !65
  %73 = load i32, ptr %11, align 4, !tbaa !49
  %74 = add nsw i32 %73, 16
  %75 = sub nsw i32 %74, 1
  %76 = and i32 %75, -16
  %77 = sext i32 %76 to i64
  store i64 %77, ptr %16, align 8, !tbaa !65
  %78 = load i64, ptr %15, align 8, !tbaa !65
  %79 = load i32, ptr %9, align 4, !tbaa !49
  %80 = add nsw i32 %79, 1
  %81 = sext i32 %80 to i64
  %82 = mul nsw i64 %78, %81
  %83 = trunc i64 %82 to i32
  store i32 %83, ptr %13, align 4, !tbaa !49
  %84 = load i64, ptr %16, align 8, !tbaa !65
  %85 = load i32, ptr %12, align 4, !tbaa !49
  %86 = add nsw i32 %85, 1
  %87 = sext i32 %86 to i64
  %88 = mul nsw i64 %84, %87
  %89 = trunc i64 %88 to i32
  store i32 %89, ptr %14, align 4, !tbaa !49
  store i32 0, ptr %10, align 4, !tbaa !49
  br label %90

90:                                               ; preds = %315, %49
  %91 = load i32, ptr %10, align 4, !tbaa !49
  %92 = icmp slt i32 %91, 3
  br i1 %92, label %93, label %318

93:                                               ; preds = %90
  %94 = load i32, ptr %10, align 4, !tbaa !49
  %95 = icmp ne i32 %94, 0
  br i1 %95, label %98, label %96

96:                                               ; preds = %93
  %97 = load i64, ptr %15, align 8, !tbaa !65
  br label %100

98:                                               ; preds = %93
  %99 = load i64, ptr %16, align 8, !tbaa !65
  br label %100

100:                                              ; preds = %98, %96
  %101 = phi i64 [ %97, %96 ], [ %99, %98 ]
  %102 = load ptr, ptr %6, align 8, !tbaa !29
  %103 = getelementptr inbounds nuw %struct.Indeo3DecodeContext, ptr %102, i32 0, i32 23
  %104 = load i32, ptr %10, align 4, !tbaa !49
  %105 = sext i32 %104 to i64
  %106 = getelementptr inbounds [3 x %struct.Plane], ptr %103, i64 0, i64 %105
  %107 = getelementptr inbounds nuw %struct.Plane, ptr %106, i32 0, i32 4
  store i64 %101, ptr %107, align 8, !tbaa !66
  %108 = load i32, ptr %10, align 4, !tbaa !49
  %109 = icmp ne i32 %108, 0
  br i1 %109, label %112, label %110

110:                                              ; preds = %100
  %111 = load i32, ptr %8, align 4, !tbaa !49
  br label %114

112:                                              ; preds = %100
  %113 = load i32, ptr %11, align 4, !tbaa !49
  br label %114

114:                                              ; preds = %112, %110
  %115 = phi i32 [ %111, %110 ], [ %113, %112 ]
  %116 = load ptr, ptr %6, align 8, !tbaa !29
  %117 = getelementptr inbounds nuw %struct.Indeo3DecodeContext, ptr %116, i32 0, i32 23
  %118 = load i32, ptr %10, align 4, !tbaa !49
  %119 = sext i32 %118 to i64
  %120 = getelementptr inbounds [3 x %struct.Plane], ptr %117, i64 0, i64 %119
  %121 = getelementptr inbounds nuw %struct.Plane, ptr %120, i32 0, i32 2
  store i32 %115, ptr %121, align 8, !tbaa !68
  %122 = load i32, ptr %10, align 4, !tbaa !49
  %123 = icmp ne i32 %122, 0
  br i1 %123, label %126, label %124

124:                                              ; preds = %114
  %125 = load i32, ptr %9, align 4, !tbaa !49
  br label %128

126:                                              ; preds = %114
  %127 = load i32, ptr %12, align 4, !tbaa !49
  br label %128

128:                                              ; preds = %126, %124
  %129 = phi i32 [ %125, %124 ], [ %127, %126 ]
  %130 = load ptr, ptr %6, align 8, !tbaa !29
  %131 = getelementptr inbounds nuw %struct.Indeo3DecodeContext, ptr %130, i32 0, i32 23
  %132 = load i32, ptr %10, align 4, !tbaa !49
  %133 = sext i32 %132 to i64
  %134 = getelementptr inbounds [3 x %struct.Plane], ptr %131, i64 0, i64 %133
  %135 = getelementptr inbounds nuw %struct.Plane, ptr %134, i32 0, i32 3
  store i32 %129, ptr %135, align 4, !tbaa !69
  %136 = load i32, ptr %10, align 4, !tbaa !49
  %137 = icmp ne i32 %136, 0
  br i1 %137, label %140, label %138

138:                                              ; preds = %128
  %139 = load i32, ptr %13, align 4, !tbaa !49
  br label %142

140:                                              ; preds = %128
  %141 = load i32, ptr %14, align 4, !tbaa !49
  br label %142

142:                                              ; preds = %140, %138
  %143 = phi i32 [ %139, %138 ], [ %141, %140 ]
  %144 = sext i32 %143 to i64
  %145 = call noalias ptr @av_malloc(i64 noundef %144)
  %146 = load ptr, ptr %6, align 8, !tbaa !29
  %147 = getelementptr inbounds nuw %struct.Indeo3DecodeContext, ptr %146, i32 0, i32 23
  %148 = load i32, ptr %10, align 4, !tbaa !49
  %149 = sext i32 %148 to i64
  %150 = getelementptr inbounds [3 x %struct.Plane], ptr %147, i64 0, i64 %149
  %151 = getelementptr inbounds nuw %struct.Plane, ptr %150, i32 0, i32 0
  %152 = getelementptr inbounds [2 x ptr], ptr %151, i64 0, i64 0
  store ptr %145, ptr %152, align 8, !tbaa !47
  %153 = load i32, ptr %10, align 4, !tbaa !49
  %154 = icmp ne i32 %153, 0
  br i1 %154, label %157, label %155

155:                                              ; preds = %142
  %156 = load i32, ptr %13, align 4, !tbaa !49
  br label %159

157:                                              ; preds = %142
  %158 = load i32, ptr %14, align 4, !tbaa !49
  br label %159

159:                                              ; preds = %157, %155
  %160 = phi i32 [ %156, %155 ], [ %158, %157 ]
  %161 = sext i32 %160 to i64
  %162 = call noalias ptr @av_malloc(i64 noundef %161)
  %163 = load ptr, ptr %6, align 8, !tbaa !29
  %164 = getelementptr inbounds nuw %struct.Indeo3DecodeContext, ptr %163, i32 0, i32 23
  %165 = load i32, ptr %10, align 4, !tbaa !49
  %166 = sext i32 %165 to i64
  %167 = getelementptr inbounds [3 x %struct.Plane], ptr %164, i64 0, i64 %166
  %168 = getelementptr inbounds nuw %struct.Plane, ptr %167, i32 0, i32 0
  %169 = getelementptr inbounds [2 x ptr], ptr %168, i64 0, i64 1
  store ptr %162, ptr %169, align 8, !tbaa !47
  %170 = load ptr, ptr %6, align 8, !tbaa !29
  %171 = getelementptr inbounds nuw %struct.Indeo3DecodeContext, ptr %170, i32 0, i32 23
  %172 = load i32, ptr %10, align 4, !tbaa !49
  %173 = sext i32 %172 to i64
  %174 = getelementptr inbounds [3 x %struct.Plane], ptr %171, i64 0, i64 %173
  %175 = getelementptr inbounds nuw %struct.Plane, ptr %174, i32 0, i32 0
  %176 = getelementptr inbounds [2 x ptr], ptr %175, i64 0, i64 0
  %177 = load ptr, ptr %176, align 8, !tbaa !47
  %178 = icmp ne ptr %177, null
  br i1 %178, label %179, label %189

179:                                              ; preds = %159
  %180 = load ptr, ptr %6, align 8, !tbaa !29
  %181 = getelementptr inbounds nuw %struct.Indeo3DecodeContext, ptr %180, i32 0, i32 23
  %182 = load i32, ptr %10, align 4, !tbaa !49
  %183 = sext i32 %182 to i64
  %184 = getelementptr inbounds [3 x %struct.Plane], ptr %181, i64 0, i64 %183
  %185 = getelementptr inbounds nuw %struct.Plane, ptr %184, i32 0, i32 0
  %186 = getelementptr inbounds [2 x ptr], ptr %185, i64 0, i64 1
  %187 = load ptr, ptr %186, align 8, !tbaa !47
  %188 = icmp ne ptr %187, null
  br i1 %188, label %190, label %189

189:                                              ; preds = %179, %159
  store i32 -12, ptr %5, align 4
  store i32 1, ptr %17, align 4
  br label %319

190:                                              ; preds = %179
  %191 = load ptr, ptr %6, align 8, !tbaa !29
  %192 = getelementptr inbounds nuw %struct.Indeo3DecodeContext, ptr %191, i32 0, i32 23
  %193 = load i32, ptr %10, align 4, !tbaa !49
  %194 = sext i32 %193 to i64
  %195 = getelementptr inbounds [3 x %struct.Plane], ptr %192, i64 0, i64 %194
  %196 = getelementptr inbounds nuw %struct.Plane, ptr %195, i32 0, i32 0
  %197 = getelementptr inbounds [2 x ptr], ptr %196, i64 0, i64 0
  %198 = load ptr, ptr %197, align 8, !tbaa !47
  %199 = load ptr, ptr %6, align 8, !tbaa !29
  %200 = getelementptr inbounds nuw %struct.Indeo3DecodeContext, ptr %199, i32 0, i32 23
  %201 = load i32, ptr %10, align 4, !tbaa !49
  %202 = sext i32 %201 to i64
  %203 = getelementptr inbounds [3 x %struct.Plane], ptr %200, i64 0, i64 %202
  %204 = getelementptr inbounds nuw %struct.Plane, ptr %203, i32 0, i32 4
  %205 = load i64, ptr %204, align 8, !tbaa !66
  call void @llvm.memset.p0.i64(ptr align 1 %198, i8 64, i64 %205, i1 false)
  %206 = load ptr, ptr %6, align 8, !tbaa !29
  %207 = getelementptr inbounds nuw %struct.Indeo3DecodeContext, ptr %206, i32 0, i32 23
  %208 = load i32, ptr %10, align 4, !tbaa !49
  %209 = sext i32 %208 to i64
  %210 = getelementptr inbounds [3 x %struct.Plane], ptr %207, i64 0, i64 %209
  %211 = getelementptr inbounds nuw %struct.Plane, ptr %210, i32 0, i32 0
  %212 = getelementptr inbounds [2 x ptr], ptr %211, i64 0, i64 1
  %213 = load ptr, ptr %212, align 8, !tbaa !47
  %214 = load ptr, ptr %6, align 8, !tbaa !29
  %215 = getelementptr inbounds nuw %struct.Indeo3DecodeContext, ptr %214, i32 0, i32 23
  %216 = load i32, ptr %10, align 4, !tbaa !49
  %217 = sext i32 %216 to i64
  %218 = getelementptr inbounds [3 x %struct.Plane], ptr %215, i64 0, i64 %217
  %219 = getelementptr inbounds nuw %struct.Plane, ptr %218, i32 0, i32 4
  %220 = load i64, ptr %219, align 8, !tbaa !66
  call void @llvm.memset.p0.i64(ptr align 1 %213, i8 64, i64 %220, i1 false)
  %221 = load ptr, ptr %6, align 8, !tbaa !29
  %222 = getelementptr inbounds nuw %struct.Indeo3DecodeContext, ptr %221, i32 0, i32 23
  %223 = load i32, ptr %10, align 4, !tbaa !49
  %224 = sext i32 %223 to i64
  %225 = getelementptr inbounds [3 x %struct.Plane], ptr %222, i64 0, i64 %224
  %226 = getelementptr inbounds nuw %struct.Plane, ptr %225, i32 0, i32 0
  %227 = getelementptr inbounds [2 x ptr], ptr %226, i64 0, i64 0
  %228 = load ptr, ptr %227, align 8, !tbaa !47
  %229 = load ptr, ptr %6, align 8, !tbaa !29
  %230 = getelementptr inbounds nuw %struct.Indeo3DecodeContext, ptr %229, i32 0, i32 23
  %231 = load i32, ptr %10, align 4, !tbaa !49
  %232 = sext i32 %231 to i64
  %233 = getelementptr inbounds [3 x %struct.Plane], ptr %230, i64 0, i64 %232
  %234 = getelementptr inbounds nuw %struct.Plane, ptr %233, i32 0, i32 4
  %235 = load i64, ptr %234, align 8, !tbaa !66
  %236 = getelementptr inbounds i8, ptr %228, i64 %235
  %237 = load ptr, ptr %6, align 8, !tbaa !29
  %238 = getelementptr inbounds nuw %struct.Indeo3DecodeContext, ptr %237, i32 0, i32 23
  %239 = load i32, ptr %10, align 4, !tbaa !49
  %240 = sext i32 %239 to i64
  %241 = getelementptr inbounds [3 x %struct.Plane], ptr %238, i64 0, i64 %240
  %242 = getelementptr inbounds nuw %struct.Plane, ptr %241, i32 0, i32 1
  %243 = getelementptr inbounds [2 x ptr], ptr %242, i64 0, i64 0
  store ptr %236, ptr %243, align 8, !tbaa !47
  %244 = load ptr, ptr %6, align 8, !tbaa !29
  %245 = getelementptr inbounds nuw %struct.Indeo3DecodeContext, ptr %244, i32 0, i32 23
  %246 = load i32, ptr %10, align 4, !tbaa !49
  %247 = sext i32 %246 to i64
  %248 = getelementptr inbounds [3 x %struct.Plane], ptr %245, i64 0, i64 %247
  %249 = getelementptr inbounds nuw %struct.Plane, ptr %248, i32 0, i32 0
  %250 = getelementptr inbounds [2 x ptr], ptr %249, i64 0, i64 1
  %251 = load ptr, ptr %250, align 8, !tbaa !47
  %252 = load ptr, ptr %6, align 8, !tbaa !29
  %253 = getelementptr inbounds nuw %struct.Indeo3DecodeContext, ptr %252, i32 0, i32 23
  %254 = load i32, ptr %10, align 4, !tbaa !49
  %255 = sext i32 %254 to i64
  %256 = getelementptr inbounds [3 x %struct.Plane], ptr %253, i64 0, i64 %255
  %257 = getelementptr inbounds nuw %struct.Plane, ptr %256, i32 0, i32 4
  %258 = load i64, ptr %257, align 8, !tbaa !66
  %259 = getelementptr inbounds i8, ptr %251, i64 %258
  %260 = load ptr, ptr %6, align 8, !tbaa !29
  %261 = getelementptr inbounds nuw %struct.Indeo3DecodeContext, ptr %260, i32 0, i32 23
  %262 = load i32, ptr %10, align 4, !tbaa !49
  %263 = sext i32 %262 to i64
  %264 = getelementptr inbounds [3 x %struct.Plane], ptr %261, i64 0, i64 %263
  %265 = getelementptr inbounds nuw %struct.Plane, ptr %264, i32 0, i32 1
  %266 = getelementptr inbounds [2 x ptr], ptr %265, i64 0, i64 1
  store ptr %259, ptr %266, align 8, !tbaa !47
  %267 = load ptr, ptr %6, align 8, !tbaa !29
  %268 = getelementptr inbounds nuw %struct.Indeo3DecodeContext, ptr %267, i32 0, i32 23
  %269 = load i32, ptr %10, align 4, !tbaa !49
  %270 = sext i32 %269 to i64
  %271 = getelementptr inbounds [3 x %struct.Plane], ptr %268, i64 0, i64 %270
  %272 = getelementptr inbounds nuw %struct.Plane, ptr %271, i32 0, i32 1
  %273 = getelementptr inbounds [2 x ptr], ptr %272, i64 0, i64 0
  %274 = load ptr, ptr %273, align 8, !tbaa !47
  %275 = load ptr, ptr %6, align 8, !tbaa !29
  %276 = getelementptr inbounds nuw %struct.Indeo3DecodeContext, ptr %275, i32 0, i32 23
  %277 = load i32, ptr %10, align 4, !tbaa !49
  %278 = sext i32 %277 to i64
  %279 = getelementptr inbounds [3 x %struct.Plane], ptr %276, i64 0, i64 %278
  %280 = getelementptr inbounds nuw %struct.Plane, ptr %279, i32 0, i32 4
  %281 = load i64, ptr %280, align 8, !tbaa !66
  %282 = load ptr, ptr %6, align 8, !tbaa !29
  %283 = getelementptr inbounds nuw %struct.Indeo3DecodeContext, ptr %282, i32 0, i32 23
  %284 = load i32, ptr %10, align 4, !tbaa !49
  %285 = sext i32 %284 to i64
  %286 = getelementptr inbounds [3 x %struct.Plane], ptr %283, i64 0, i64 %285
  %287 = getelementptr inbounds nuw %struct.Plane, ptr %286, i32 0, i32 3
  %288 = load i32, ptr %287, align 4, !tbaa !69
  %289 = zext i32 %288 to i64
  %290 = mul nsw i64 %281, %289
  call void @llvm.memset.p0.i64(ptr align 1 %274, i8 0, i64 %290, i1 false)
  %291 = load ptr, ptr %6, align 8, !tbaa !29
  %292 = getelementptr inbounds nuw %struct.Indeo3DecodeContext, ptr %291, i32 0, i32 23
  %293 = load i32, ptr %10, align 4, !tbaa !49
  %294 = sext i32 %293 to i64
  %295 = getelementptr inbounds [3 x %struct.Plane], ptr %292, i64 0, i64 %294
  %296 = getelementptr inbounds nuw %struct.Plane, ptr %295, i32 0, i32 1
  %297 = getelementptr inbounds [2 x ptr], ptr %296, i64 0, i64 1
  %298 = load ptr, ptr %297, align 8, !tbaa !47
  %299 = load ptr, ptr %6, align 8, !tbaa !29
  %300 = getelementptr inbounds nuw %struct.Indeo3DecodeContext, ptr %299, i32 0, i32 23
  %301 = load i32, ptr %10, align 4, !tbaa !49
  %302 = sext i32 %301 to i64
  %303 = getelementptr inbounds [3 x %struct.Plane], ptr %300, i64 0, i64 %302
  %304 = getelementptr inbounds nuw %struct.Plane, ptr %303, i32 0, i32 4
  %305 = load i64, ptr %304, align 8, !tbaa !66
  %306 = load ptr, ptr %6, align 8, !tbaa !29
  %307 = getelementptr inbounds nuw %struct.Indeo3DecodeContext, ptr %306, i32 0, i32 23
  %308 = load i32, ptr %10, align 4, !tbaa !49
  %309 = sext i32 %308 to i64
  %310 = getelementptr inbounds [3 x %struct.Plane], ptr %307, i64 0, i64 %309
  %311 = getelementptr inbounds nuw %struct.Plane, ptr %310, i32 0, i32 3
  %312 = load i32, ptr %311, align 4, !tbaa !69
  %313 = zext i32 %312 to i64
  %314 = mul nsw i64 %305, %313
  call void @llvm.memset.p0.i64(ptr align 1 %298, i8 0, i64 %314, i1 false)
  br label %315

315:                                              ; preds = %190
  %316 = load i32, ptr %10, align 4, !tbaa !49
  %317 = add nsw i32 %316, 1
  store i32 %317, ptr %10, align 4, !tbaa !49
  br label %90, !llvm.loop !70

318:                                              ; preds = %90
  store i32 0, ptr %5, align 4
  store i32 1, ptr %17, align 4
  br label %319

319:                                              ; preds = %318, %189, %45
  call void @llvm.lifetime.end.p0(i64 8, ptr %16) #10
  call void @llvm.lifetime.end.p0(i64 8, ptr %15) #10
  call void @llvm.lifetime.end.p0(i64 4, ptr %14) #10
  call void @llvm.lifetime.end.p0(i64 4, ptr %13) #10
  call void @llvm.lifetime.end.p0(i64 4, ptr %12) #10
  call void @llvm.lifetime.end.p0(i64 4, ptr %11) #10
  call void @llvm.lifetime.end.p0(i64 4, ptr %10) #10
  %320 = load i32, ptr %5, align 4
  ret i32 %320
}