; Function Attrs: cold nounwind optsize uwtable
define internal fastcc range(i32 -1094995529, 1) i32 @allocate_frame_buffers(ptr noundef captures(none) %0, ptr noundef %1, i32 noundef %2, i32 noundef %3) unnamed_addr #0 {
  %5 = add nsw i32 %2, 1
  %6 = and i32 %5, -2
  %7 = add nsw i32 %3, 1
  %8 = and i32 %7, -2
  %9 = add i32 %6, -641
  %or.cond = icmp ult i32 %9, -625
  %10 = add i32 %8, -481
  %11 = icmp ult i32 %10, -465
  %or.cond5 = select i1 %or.cond, i1 true, i1 %11
  br i1 %or.cond5, label %12, label %13

12:                                               ; preds = %4
  tail call void (ptr, i32, ptr, ...) @av_log(ptr noundef %1, i32 noundef 16, ptr noundef nonnull @.str.2, i32 noundef %6, i32 noundef %8) #10
  br label %.loopexit

13:                                               ; preds = %4
  %14 = trunc nuw nsw i32 %6 to i16
  %15 = getelementptr inbounds nuw i8, ptr %0, i64 492
  store i16 %14, ptr %15, align 4, !tbaa !45
  %16 = trunc nuw nsw i32 %8 to i16
  %17 = getelementptr inbounds nuw i8, ptr %0, i64 494
  store i16 %16, ptr %17, align 2, !tbaa !46
  %18 = lshr i32 %5, 2
  %19 = add nuw nsw i32 %18, 3
  %20 = and i32 %19, 2147483644
  %21 = lshr i32 %7, 2
  %22 = add nuw nsw i32 %21, 3
  %23 = and i32 %22, 2147483644
  %24 = add nuw nsw i32 %6, 15
  %25 = and i32 %24, 2032
  %26 = add nuw nsw i32 %20, 15
  %27 = and i32 %26, 2147483632
  %28 = or i32 %7, 1
  %29 = mul i32 %25, %28
  %30 = or disjoint i32 %23, 1
  %31 = mul i32 %27, %30
  %32 = getelementptr inbounds nuw i8, ptr %0, i64 560
  br label %33

33:                                               ; preds = %13, %47
  %indvars.iv = phi i64 [ 0, %13 ], [ %indvars.iv.next, %47 ]
  %.not = icmp eq i64 %indvars.iv, 0
  %.v = select i1 %.not, i32 %25, i32 %27
  %34 = zext nneg i32 %.v to i64
  %35 = getelementptr inbounds nuw [3 x %struct.Plane], ptr %32, i64 0, i64 %indvars.iv
  %36 = getelementptr inbounds nuw i8, ptr %35, i64 40
  store i64 %34, ptr %36, align 8, !tbaa !63
  %37 = select i1 %.not, i32 %6, i32 %20
  %38 = getelementptr inbounds nuw i8, ptr %35, i64 32
  store i32 %37, ptr %38, align 8, !tbaa !65
  %39 = select i1 %.not, i32 %8, i32 %23
  %40 = getelementptr inbounds nuw i8, ptr %35, i64 36
  store i32 %39, ptr %40, align 4, !tbaa !66
  %41 = select i1 %.not, i32 %29, i32 %31
  %42 = zext nneg i32 %41 to i64
  %43 = tail call noalias ptr @av_malloc(i64 noundef %42) #10
  store ptr %43, ptr %35, align 8, !tbaa !60
  %44 = tail call noalias ptr @av_malloc(i64 noundef %42) #10
  %45 = getelementptr inbounds nuw i8, ptr %35, i64 8
  store ptr %44, ptr %45, align 8, !tbaa !60
  %46 = load ptr, ptr %35, align 8, !tbaa !60
  %.not95 = icmp eq ptr %46, null
  %.not96 = icmp eq ptr %44, null
  %or.cond97 = select i1 %.not95, i1 true, i1 %.not96
  br i1 %or.cond97, label %.loopexit, label %47

47:                                               ; preds = %33
  %48 = load i64, ptr %36, align 8, !tbaa !63
  tail call void @llvm.memset.p0.i64(ptr nonnull align 1 %46, i8 64, i64 %48, i1 false)
  %49 = load ptr, ptr %45, align 8, !tbaa !60
  %50 = load i64, ptr %36, align 8, !tbaa !63
  tail call void @llvm.memset.p0.i64(ptr align 1 %49, i8 64, i64 %50, i1 false)
  %51 = load ptr, ptr %35, align 8, !tbaa !60
  %52 = load i64, ptr %36, align 8, !tbaa !63
  %53 = getelementptr inbounds i8, ptr %51, i64 %52
  %54 = getelementptr inbounds nuw i8, ptr %35, i64 16
  store ptr %53, ptr %54, align 8, !tbaa !60
  %55 = load ptr, ptr %45, align 8, !tbaa !60
  %56 = getelementptr inbounds i8, ptr %55, i64 %52
  %57 = getelementptr inbounds nuw i8, ptr %35, i64 24
  store ptr %56, ptr %57, align 8, !tbaa !60
  %58 = load i32, ptr %40, align 4, !tbaa !66
  %59 = zext i32 %58 to i64
  %60 = mul nsw i64 %52, %59
  tail call void @llvm.memset.p0.i64(ptr align 1 %53, i8 0, i64 %60, i1 false)
  %61 = load ptr, ptr %57, align 8, !tbaa !60
  %62 = load i64, ptr %36, align 8, !tbaa !63
  %63 = load i32, ptr %40, align 4, !tbaa !66
  %64 = zext i32 %63 to i64
  %65 = mul nsw i64 %62, %64
  tail call void @llvm.memset.p0.i64(ptr align 1 %61, i8 0, i64 %65, i1 false)
  %indvars.iv.next = add nuw nsw i64 %indvars.iv, 1
  %exitcond.not = icmp eq i64 %indvars.iv.next, 3
  br i1 %exitcond.not, label %.loopexit, label %33, !llvm.loop !67

.loopexit:                                        ; preds = %47, %33, %12
  %.0 = phi i32 [ -1094995529, %12 ], [ 0, %47 ], [ -12, %33 ]
  ret i32 %.0
}